; Function Attrs: mustprogress uwtable
define internal void @_ZN7V3Sched12_GLOBAL__N_116VirtIfaceVisitor5visitEP12AstJumpBlock(ptr noundef nonnull align 8 dereferenceable(176) %0, ptr noundef nonnull %1) unnamed_addr #3 align 2 personality ptr @__gxx_personality_v0 {
  %3 = getelementptr inbounds nuw i8, ptr %0, i64 48
  %4 = load ptr, ptr %3, align 8, !tbaa !130
  %5 = getelementptr inbounds nuw i8, ptr %0, i64 56
  %6 = load ptr, ptr %5, align 8, !tbaa !132
  invoke void @_ZN7AstNode15iterateChildrenER9VNVisitor(ptr noundef nonnull align 8 dereferenceable(152) %1, ptr noundef nonnull align 8 dereferenceable(32) %0)
          to label %_ZN9VNVisitor15iterateChildrenEP7AstNode.exit unwind label %10

_ZN9VNVisitor15iterateChildrenEP7AstNode.exit:    ; preds = %2
  store ptr %6, ptr %5, align 8, !tbaa !132
  store ptr %4, ptr %3, align 8, !tbaa !130
  %7 = load i8, ptr getelementptr inbounds nuw (i8, ptr @v3Global, i64 44), align 4, !tbaa !134, !range !72, !noundef !73
  %8 = trunc nuw i8 %7 to i1
  br i1 %8, label %9, label %12

9:                                                ; preds = %_ZN9VNVisitor15iterateChildrenEP7AstNode.exit
  tail call void @llvm.memset.p0.i64(ptr noundef nonnull align 8 dereferenceable(16) %3, i8 0, i64 16, i1 false)
  br label %12

10:                                               ; preds = %2
  %11 = landingpad { ptr, i32 }
          cleanup
  store ptr %6, ptr %5, align 8, !tbaa !132
  store ptr %4, ptr %3, align 8, !tbaa !130
  resume { ptr, i32 } %11

12:                                               ; preds = %9, %_ZN9VNVisitor15iterateChildrenEP7AstNode.exit
  ret void
}